target datalayout = "e-m:e-p270:32:32-p271:32:32-p272:64:64-i64:64-i128:128-f80:128-n8:16:32:64-S128"
target triple = "x86_64-pc-linux-gnu"

%struct.AVFormatContext = type { ptr, ptr, ptr, ptr, ptr, i32, i32, ptr, i32, ptr, i32, ptr, ptr, i64, i64, i64, i32, i32, i32, i64, i64, ptr, i32, i32, ptr, i32, i32, i32, i32, ptr, i64, i32, i32, %struct.AVIOInterruptCB, i32, i32, i32, i32, i64, i32, i32, i32, i32, i32, i32, i32, i32, i32, i32, i32, i32, i64, i32, i32, i32, i32, i32, ptr, ptr, ptr, ptr, i32, ptr, ptr, ptr, ptr, i32, ptr, ptr, i64, ptr, ptr, ptr, i64 }
%struct.AVIOInterruptCB = type { ptr, ptr }

@.str.57 = private unnamed_addr constant [21 x i8] c"av_dict_set failed.\0A\00", align 1
@.str.58 = private unnamed_addr constant [3 x i8] c"%s\00", align 1
@.str.59 = private unnamed_addr constant [4 x i8] c"%lu\00", align 1

; Function Attrs: nounwind uwtable
define internal i32 @asf_read_generic_value(ptr noundef %0, i32 noundef %1, ptr noundef %2) #0 {
  %4 = alloca i32, align 4
  %5 = alloca ptr, align 8
  %6 = alloca i32, align 4
  %7 = alloca ptr, align 8
  store ptr %0, ptr %5, align 8, !tbaa !33
  store i32 %1, ptr %6, align 4, !tbaa !42
  store ptr %2, ptr %7, align 8, !tbaa !122
  %8 = load i32, ptr %6, align 4, !tbaa !42
  switch i32 %8, label %28 [
    i32 2, label %9
    i32 3, label %14
    i32 4, label %19
    i32 5, label %23
  ]

9:                                                ; preds = %3
  %10 = load ptr, ptr %5, align 8, !tbaa !33
  %11 = call i32 @avio_rl16(ptr noundef %10)
  %12 = zext i32 %11 to i64
  %13 = load ptr, ptr %7, align 8, !tbaa !122
  store i64 %12, ptr %13, align 8, !tbaa !47
  br label %29

14:                                               ; preds = %3
  %15 = load ptr, ptr %5, align 8, !tbaa !33
  %16 = call i32 @avio_rl32(ptr noundef %15)
  %17 = zext i32 %16 to i64
  %18 = load ptr, ptr %7, align 8, !tbaa !122
  store i64 %17, ptr %18, align 8, !tbaa !47
  br label %29

19:                                               ; preds = %3
  %20 = load ptr, ptr %5, align 8, !tbaa !33
  %21 = call i64 @avio_rl64(ptr noundef %20)
  %22 = load ptr, ptr %7, align 8, !tbaa !122
  store i64 %21, ptr %22, align 8, !tbaa !47
  br label %29

23:                                               ; preds = %3
  %24 = load ptr, ptr %5, align 8, !tbaa !33
  %25 = call i32 @avio_rl16(ptr noundef %24)
  %26 = zext i32 %25 to i64
  %27 = load ptr, ptr %7, align 8, !tbaa !122
  store i64 %26, ptr %27, align 8, !tbaa !47
  br label %29

28:                                               ; preds = %3
  store i32 -1094995529, ptr %4, align 4
  br label %30

29:                                               ; preds = %23, %19, %14, %9
  store i32 0, ptr %4, align 4
  br label %30

30:                                               ; preds = %29, %28
  %31 = load i32, ptr %4, align 4
  ret i32 %31
}

; Function Attrs: nounwind uwtable
define internal i32 @asf_set_metadata(ptr noundef %0, ptr noundef %1, i32 noundef %2, ptr noundef %3) #0 {
  %5 = alloca i32, align 4
  %6 = alloca ptr, align 8
  %7 = alloca ptr, align 8
  %8 = alloca i32, align 4
  %9 = alloca ptr, align 8
  %10 = alloca ptr, align 8
  %11 = alloca i64, align 8
  %12 = alloca [32 x i8], align 16
  %13 = alloca i32, align 4
  %14 = alloca i32, align 4
  store ptr %0, ptr %6, align 8, !tbaa !13
  store ptr %1, ptr %7, align 8, !tbaa !59
  store i32 %2, ptr %8, align 4, !tbaa !42
  store ptr %3, ptr %9, align 8, !tbaa !129
  call void @llvm.lifetime.start.p0(i64 8, ptr %10) #10
  %15 = load ptr, ptr %6, align 8, !tbaa !13
  %16 = getelementptr inbounds nuw %struct.AVFormatContext, ptr %15, i32 0, i32 4
  %17 = load ptr, ptr %16, align 8, !tbaa !32
  store ptr %17, ptr %10, align 8, !tbaa !33
  call void @llvm.lifetime.start.p0(i64 8, ptr %11) #10
  call void @llvm.lifetime.start.p0(i64 32, ptr %12) #10
  call void @llvm.lifetime.start.p0(i64 4, ptr %13) #10
  %18 = load ptr, ptr %10, align 8, !tbaa !33
  %19 = load i32, ptr %8, align 4, !tbaa !42
  %20 = call i32 @asf_read_generic_value(ptr noundef %18, i32 noundef %19, ptr noundef %11)
  store i32 %20, ptr %13, align 4, !tbaa !42
  %21 = load i32, ptr %13, align 4, !tbaa !42
  %22 = icmp slt i32 %21, 0
  br i1 %22, label %23, label %25

23:                                               ; preds = %4
  %24 = load i32, ptr %13, align 4, !tbaa !42
  store i32 %24, ptr %5, align 4
  store i32 1, ptr %14, align 4
  br label %37

25:                                               ; preds = %4
  %26 = getelementptr inbounds [32 x i8], ptr %12, i64 0, i64 0
  %27 = load i64, ptr %11, align 8, !tbaa !47
  %28 = call i32 (ptr, i64, ptr, ...) @snprintf(ptr noundef %26, i64 noundef 32, ptr noundef @.str.59, i64 noundef %27) #10
  %29 = load ptr, ptr %9, align 8, !tbaa !129
  %30 = load ptr, ptr %7, align 8, !tbaa !59
  %31 = getelementptr inbounds [32 x i8], ptr %12, i64 0, i64 0
  %32 = call i32 @av_dict_set(ptr noundef %29, ptr noundef %30, ptr noundef %31, i32 noundef 0)
  %33 = icmp slt i32 %32, 0
  br i1 %33, label %34, label %36

34:                                               ; preds = %25
  %35 = load ptr, ptr %6, align 8, !tbaa !13
  call void (ptr, i32, ptr, ...) @av_log(ptr noundef %35, i32 noundef 24, ptr noundef @.str.57)
  br label %36

36:                                               ; preds = %34, %25
  store i32 0, ptr %5, align 4
  store i32 1, ptr %14, align 4
  br label %37

37:                                               ; preds = %36, %23
  call void @llvm.lifetime.end.p0(i64 4, ptr %13) #10
  call void @llvm.lifetime.end.p0(i64 32, ptr %12) #10
  call void @llvm.lifetime.end.p0(i64 8, ptr %11) #10
  call void @llvm.lifetime.end.p0(i64 8, ptr %10) #10
  %38 = load i32, ptr %5, align 4
  ret i32 %38
}

; Function Attrs: nounwind uwtable
define internal i32 @asf_read_value(ptr noundef %0, ptr noundef %1, i16 noundef zeroext %2, i32 noundef %3, ptr noundef %4) #0 {
  %6 = alloca i32, align 4
  %7 = alloca ptr, align 8
  %8 = alloca ptr, align 8
  %9 = alloca i16, align 2
  %10 = alloca i32, align 4
  %11 = alloca ptr, align 8
  %12 = alloca i32, align 4
  %13 = alloca ptr, align 8
  %14 = alloca i16, align 2
  %15 = alloca ptr, align 8
  %16 = alloca i32, align 4
  %17 = alloca [256 x i8], align 16
  store ptr %0, ptr %7, align 8, !tbaa !13
  store ptr %1, ptr %8, align 8, !tbaa !59
  store i16 %2, ptr %9, align 2, !tbaa !132
  store i32 %3, ptr %10, align 4, !tbaa !42
  store ptr %4, ptr %11, align 8, !tbaa !129
  call void @llvm.lifetime.start.p0(i64 4, ptr %12) #10
  call void @llvm.lifetime.start.p0(i64 8, ptr %13) #10
  call void @llvm.lifetime.start.p0(i64 2, ptr %14) #10
  %18 = load i16, ptr %9, align 2, !tbaa !132
  %19 = zext i16 %18 to i32
  %20 = mul nsw i32 2, %19
  %21 = add nsw i32 %20, 1
  %22 = trunc i32 %21 to i16
  store i16 %22, ptr %14, align 2, !tbaa !132
  call void @llvm.lifetime.start.p0(i64 8, ptr %15) #10
  %23 = load ptr, ptr %7, align 8, !tbaa !13
  %24 = getelementptr inbounds nuw %struct.AVFormatContext, ptr %23, i32 0, i32 4
  %25 = load ptr, ptr %24, align 8, !tbaa !32
  store ptr %25, ptr %15, align 8, !tbaa !33
  %26 = load i16, ptr %14, align 2, !tbaa !132
  %27 = zext i16 %26 to i64
  %28 = call noalias ptr @av_malloc(i64 noundef %27)
  store ptr %28, ptr %13, align 8, !tbaa !59
  %29 = load ptr, ptr %13, align 8, !tbaa !59
  %30 = icmp ne ptr %29, null
  br i1 %30, label %32, label %31

31:                                               ; preds = %5
  store i32 -12, ptr %6, align 4
  store i32 1, ptr %16, align 4
  br label %104

32:                                               ; preds = %5
  %33 = load i32, ptr %10, align 4, !tbaa !42
  %34 = icmp eq i32 %33, 0
  br i1 %34, label %35, label %54

35:                                               ; preds = %32
  %36 = load ptr, ptr %15, align 8, !tbaa !33
  %37 = load i16, ptr %9, align 2, !tbaa !132
  %38 = zext i16 %37 to i32
  %39 = load ptr, ptr %13, align 8, !tbaa !59
  %40 = load i16, ptr %14, align 2, !tbaa !132
  %41 = zext i16 %40 to i32
  %42 = call i32 @get_asf_string(ptr noundef %36, i32 noundef %38, ptr noundef %39, i32 noundef %41)
  store i32 %42, ptr %12, align 4, !tbaa !42
  %43 = icmp slt i32 %42, 0
  br i1 %43, label %44, label %45

44:                                               ; preds = %35
  br label %102

45:                                               ; preds = %35
  %46 = load ptr, ptr %11, align 8, !tbaa !129
  %47 = load ptr, ptr %8, align 8, !tbaa !59
  %48 = load ptr, ptr %13, align 8, !tbaa !59
  %49 = call i32 @av_dict_set(ptr noundef %46, ptr noundef %47, ptr noundef %48, i32 noundef 0)
  %50 = icmp slt i32 %49, 0
  br i1 %50, label %51, label %53

51:                                               ; preds = %45
  %52 = load ptr, ptr %7, align 8, !tbaa !13
  call void (ptr, i32, ptr, ...) @av_log(ptr noundef %52, i32 noundef 24, ptr noundef @.str.57)
  br label %53

53:                                               ; preds = %51, %45
  br label %101

54:                                               ; preds = %32
  call void @llvm.lifetime.start.p0(i64 256, ptr %17) #10
  %55 = load i16, ptr %9, align 2, !tbaa !132
  %56 = zext i16 %55 to i64
  %57 = icmp ugt i64 %56, 256
  br i1 %57, label %58, label %59

58:                                               ; preds = %54
  store i32 -1094995529, ptr %12, align 4, !tbaa !42
  store i32 2, ptr %16, align 4
  br label %98

59:                                               ; preds = %54
  %60 = load ptr, ptr %15, align 8, !tbaa !33
  %61 = load ptr, ptr %13, align 8, !tbaa !59
  %62 = load i16, ptr %9, align 2, !tbaa !132
  %63 = zext i16 %62 to i32
  %64 = call i32 @avio_read(ptr noundef %60, ptr noundef %61, i32 noundef %63)
  store i32 %64, ptr %12, align 4, !tbaa !42
  %65 = icmp slt i32 %64, 0
  br i1 %65, label %66, label %67

66:                                               ; preds = %59
  store i32 2, ptr %16, align 4
  br label %98

67:                                               ; preds = %59
  %68 = load i32, ptr %12, align 4, !tbaa !42
  %69 = load i16, ptr %9, align 2, !tbaa !132
  %70 = zext i16 %69 to i32
  %71 = mul nsw i32 2, %70
  %72 = icmp slt i32 %68, %71
  br i1 %72, label %73, label %78

73:                                               ; preds = %67
  %74 = load ptr, ptr %13, align 8, !tbaa !59
  %75 = load i32, ptr %12, align 4, !tbaa !42
  %76 = sext i32 %75 to i64
  %77 = getelementptr inbounds i8, ptr %74, i64 %76
  store i8 0, ptr %77, align 1, !tbaa !131
  br label %86

78:                                               ; preds = %67
  %79 = load ptr, ptr %13, align 8, !tbaa !59
  %80 = load i16, ptr %9, align 2, !tbaa !132
  %81 = zext i16 %80 to i32
  %82 = mul nsw i32 2, %81
  %83 = sub nsw i32 %82, 1
  %84 = sext i32 %83 to i64
  %85 = getelementptr inbounds i8, ptr %79, i64 %84
  store i8 0, ptr %85, align 1, !tbaa !131
  br label %86

86:                                               ; preds = %78, %73
  %87 = getelementptr inbounds [256 x i8], ptr %17, i64 0, i64 0
  %88 = load ptr, ptr %13, align 8, !tbaa !59
  %89 = call i32 (ptr, i64, ptr, ...) @snprintf(ptr noundef %87, i64 noundef 256, ptr noundef @.str.58, ptr noundef %88) #10
  %90 = load ptr, ptr %11, align 8, !tbaa !129
  %91 = load ptr, ptr %8, align 8, !tbaa !59
  %92 = getelementptr inbounds [256 x i8], ptr %17, i64 0, i64 0
  %93 = call i32 @av_dict_set(ptr noundef %90, ptr noundef %91, ptr noundef %92, i32 noundef 0)
  %94 = icmp slt i32 %93, 0
  br i1 %94, label %95, label %97

95:                                               ; preds = %86
  %96 = load ptr, ptr %7, align 8, !tbaa !13
  call void (ptr, i32, ptr, ...) @av_log(ptr noundef %96, i32 noundef 24, ptr noundef @.str.57)
  br label %97

97:                                               ; preds = %95, %86
  store i32 0, ptr %16, align 4
  br label %98

98:                                               ; preds = %66, %58, %97
  call void @llvm.lifetime.end.p0(i64 256, ptr %17) #10
  %99 = load i32, ptr %16, align 4
  switch i32 %99, label %104 [
    i32 0, label %100
    i32 2, label %102
  ]

100:                                              ; preds = %98
  br label %101

101:                                              ; preds = %100, %53
  call void @av_freep(ptr noundef %13)
  store i32 0, ptr %6, align 4
  store i32 1, ptr %16, align 4
  br label %104

102:                                              ; preds = %98, %44
  call void @av_freep(ptr noundef %13)
  %103 = load i32, ptr %12, align 4, !tbaa !42
  store i32 %103, ptr %6, align 4
  store i32 1, ptr %16, align 4
  br label %104

104:                                              ; preds = %102, %101, %98, %31
  call void @llvm.lifetime.end.p0(i64 8, ptr %15) #10
  call void @llvm.lifetime.end.p0(i64 2, ptr %14) #10
  call void @llvm.lifetime.end.p0(i64 8, ptr %13) #10
  call void @llvm.lifetime.end.p0(i64 4, ptr %12) #10
  %105 = load i32, ptr %6, align 4
  ret i32 %105
}

; Function Attrs: nounwind uwtable
define internal i32 @process_metadata(ptr noundef %0, ptr noundef %1, i16 noundef zeroext %2, i16 noundef zeroext %3, i16 noundef zeroext %4, ptr noundef %5) #0 {
  %7 = alloca i32, align 4
  %8 = alloca ptr, align 8
  %9 = alloca ptr, align 8
  %10 = alloca i16, align 2
  %11 = alloca i16, align 2
  %12 = alloca i16, align 2
  %13 = alloca ptr, align 8
  %14 = alloca i32, align 4
  %15 = alloca [16 x i8], align 16
  %16 = alloca i32, align 4
  store ptr %0, ptr %8, align 8, !tbaa !13
  store ptr %1, ptr %9, align 8, !tbaa !59
  store i16 %2, ptr %10, align 2, !tbaa !132
  store i16 %3, ptr %11, align 2, !tbaa !132
  store i16 %4, ptr %12, align 2, !tbaa !132
  store ptr %5, ptr %13, align 8, !tbaa !129
  call void @llvm.lifetime.start.p0(i64 4, ptr %14) #10
  call void @llvm.lifetime.start.p0(i64 16, ptr %15) #10
  %17 = load i16, ptr %11, align 2, !tbaa !132
  %18 = icmp ne i16 %17, 0
  br i1 %18, label %19, label %63

19:                                               ; preds = %6
  %20 = load i16, ptr %12, align 2, !tbaa !132
  %21 = zext i16 %20 to i32
  switch i32 %21, label %51 [
    i32 0, label %22
    i32 1, label %30
    i32 6, label %46
  ]

22:                                               ; preds = %19
  %23 = load ptr, ptr %8, align 8, !tbaa !13
  %24 = load ptr, ptr %9, align 8, !tbaa !59
  %25 = load i16, ptr %11, align 2, !tbaa !132
  %26 = load i16, ptr %12, align 2, !tbaa !132
  %27 = zext i16 %26 to i32
  %28 = load ptr, ptr %13, align 8, !tbaa !129
  %29 = call i32 @asf_read_value(ptr noundef %23, ptr noundef %24, i16 noundef zeroext %25, i32 noundef %27, ptr noundef %28)
  br label %62

30:                                               ; preds = %19
  %31 = load ptr, ptr %8, align 8, !tbaa !13
  %32 = load ptr, ptr %9, align 8, !tbaa !59
  %33 = load i16, ptr %11, align 2, !tbaa !132
  %34 = zext i16 %33 to i32
  %35 = call i32 @ff_asf_handle_byte_array(ptr noundef %31, ptr noundef %32, i32 noundef %34)
  %36 = icmp sgt i32 %35, 0
  br i1 %36, label %37, label %45

37:                                               ; preds = %30
  %38 = load ptr, ptr %8, align 8, !tbaa !13
  %39 = load ptr, ptr %9, align 8, !tbaa !59
  %40 = load i16, ptr %11, align 2, !tbaa !132
  %41 = load i16, ptr %12, align 2, !tbaa !132
  %42 = zext i16 %41 to i32
  %43 = load ptr, ptr %13, align 8, !tbaa !129
  %44 = call i32 @asf_read_value(ptr noundef %38, ptr noundef %39, i16 noundef zeroext %40, i32 noundef %42, ptr noundef %43)
  br label %45

45:                                               ; preds = %37, %30
  br label %62

46:                                               ; preds = %19
  %47 = load ptr, ptr %8, align 8, !tbaa !13
  %48 = getelementptr inbounds nuw %struct.AVFormatContext, ptr %47, i32 0, i32 4
  %49 = load ptr, ptr %48, align 8, !tbaa !32
  %50 = call i32 @ff_get_guid(ptr noundef %49, ptr noundef %15)
  br label %62

51:                                               ; preds = %19
  %52 = load ptr, ptr %8, align 8, !tbaa !13
  %53 = load ptr, ptr %9, align 8, !tbaa !59
  %54 = load i16, ptr %12, align 2, !tbaa !132
  %55 = zext i16 %54 to i32
  %56 = load ptr, ptr %13, align 8, !tbaa !129
  %57 = call i32 @asf_set_metadata(ptr noundef %52, ptr noundef %53, i32 noundef %55, ptr noundef %56)
  store i32 %57, ptr %14, align 4, !tbaa !42
  %58 = icmp slt i32 %57, 0
  br i1 %58, label %59, label %61

59:                                               ; preds = %51
  %60 = load i32, ptr %14, align 4, !tbaa !42
  store i32 %60, ptr %7, align 4
  store i32 1, ptr %16, align 4
  br label %64

61:                                               ; preds = %51
  br label %62

62:                                               ; preds = %61, %46, %45, %22
  br label %63

63:                                               ; preds = %62, %6
  store i32 0, ptr %7, align 4
  store i32 1, ptr %16, align 4
  br label %64

64:                                               ; preds = %63, %59
  call void @llvm.lifetime.end.p0(i64 16, ptr %15) #10
  call void @llvm.lifetime.end.p0(i64 4, ptr %14) #10
  %65 = load i32, ptr %7, align 4
  ret i32 %65
}