; Function Attrs: nounwind uwtable
define internal fastcc range(i32 -1094995529, 1) i32 @process_metadata(ptr noundef %0, ptr noundef %1, i16 noundef zeroext %2, i16 noundef zeroext %3, ptr noundef %4) unnamed_addr #1 {
  %6 = alloca [32 x i8], align 16
  %7 = alloca ptr, align 8
  %8 = alloca [256 x i8], align 16
  %9 = alloca ptr, align 8
  %10 = alloca [16 x i8], align 16
  call void @llvm.lifetime.start.p0(i64 16, ptr nonnull %10) #12
  %.not = icmp eq i16 %2, 0
  br i1 %.not, label %82, label %11

11:                                               ; preds = %5
  switch i16 %3, label %63 [
    i16 0, label %12
    i16 1, label %28
    i16 6, label %59
  ]

12:                                               ; preds = %11
  call void @llvm.lifetime.start.p0(i64 8, ptr nonnull %9) #12
  %13 = shl i16 %2, 1
  %14 = or disjoint i16 %13, 1
  %15 = getelementptr inbounds nuw i8, ptr %0, i64 32
  %16 = load ptr, ptr %15, align 8, !tbaa !26
  %17 = zext i16 %14 to i64
  %18 = tail call noalias ptr @av_malloc(i64 noundef %17) #12
  store ptr %18, ptr %9, align 8, !tbaa !146
  %.not.i = icmp eq ptr %18, null
  br i1 %.not.i, label %asf_read_value.exit, label %19

19:                                               ; preds = %12
  %20 = zext i16 %2 to i32
  %21 = zext i16 %14 to i32
  %22 = tail call fastcc i32 @get_asf_string(ptr noundef %16, i32 noundef %20, ptr noundef nonnull %18, i32 noundef %21)
  %23 = icmp slt i32 %22, 0
  br i1 %23, label %.sink.split.i, label %24

24:                                               ; preds = %19
  %25 = tail call i32 @av_dict_set(ptr noundef %4, ptr noundef %1, ptr noundef nonnull %18, i32 noundef 0) #12
  %26 = icmp slt i32 %25, 0
  br i1 %26, label %27, label %.sink.split.i

27:                                               ; preds = %24
  tail call void (ptr, i32, ptr, ...) @av_log(ptr noundef nonnull %0, i32 noundef 24, ptr noundef nonnull @.str.57) #12
  br label %.sink.split.i

.sink.split.i:                                    ; preds = %27, %24, %19
  call void @av_freep(ptr noundef nonnull %9) #12
  br label %asf_read_value.exit

asf_read_value.exit:                              ; preds = %12, %.sink.split.i
  call void @llvm.lifetime.end.p0(i64 8, ptr nonnull %9) #12
  br label %82

28:                                               ; preds = %11
  %29 = zext i16 %2 to i32
  %30 = tail call i32 @ff_asf_handle_byte_array(ptr noundef %0, ptr noundef %1, i32 noundef %29) #12
  %31 = icmp sgt i32 %30, 0
  br i1 %31, label %32, label %82

32:                                               ; preds = %28
  call void @llvm.lifetime.start.p0(i64 8, ptr nonnull %7) #12
  %33 = shl nuw nsw i32 %29, 1
  %34 = getelementptr inbounds nuw i8, ptr %0, i64 32
  %35 = load ptr, ptr %34, align 8, !tbaa !26
  %36 = and i32 %33, 65534
  %37 = or disjoint i32 %36, 1
  %38 = zext nneg i32 %37 to i64
  %39 = tail call noalias ptr @av_malloc(i64 noundef %38) #12
  store ptr %39, ptr %7, align 8, !tbaa !146
  %.not.i24 = icmp eq ptr %39, null
  br i1 %.not.i24, label %asf_read_value.exit28, label %40

40:                                               ; preds = %32
  call void @llvm.lifetime.start.p0(i64 256, ptr nonnull %8) #12
  %41 = icmp ugt i16 %2, 256
  br i1 %41, label %.sink.split.i25, label %42

42:                                               ; preds = %40
  %43 = tail call i32 @avio_read(ptr noundef %35, ptr noundef nonnull %39, i32 noundef %29) #12
  %44 = icmp slt i32 %43, 0
  br i1 %44, label %.sink.split.i25, label %45

45:                                               ; preds = %42
  %46 = icmp samesign ult i32 %43, %33
  br i1 %46, label %47, label %50

47:                                               ; preds = %45
  %48 = zext nneg i32 %43 to i64
  %49 = getelementptr inbounds nuw i8, ptr %39, i64 %48
  store i8 0, ptr %49, align 1, !tbaa !33
  br label %54

50:                                               ; preds = %45
  %51 = zext nneg i32 %33 to i64
  %52 = getelementptr i8, ptr %39, i64 %51
  %53 = getelementptr i8, ptr %52, i64 -1
  store i8 0, ptr %53, align 1, !tbaa !33
  br label %54

54:                                               ; preds = %50, %47
  %55 = call i32 (ptr, i64, ptr, ...) @snprintf(ptr noundef nonnull dereferenceable(1) %8, i64 noundef 256, ptr noundef nonnull @.str.58, ptr noundef nonnull %39) #12
  %56 = call i32 @av_dict_set(ptr noundef %4, ptr noundef %1, ptr noundef nonnull %8, i32 noundef 0) #12
  %57 = icmp slt i32 %56, 0
  br i1 %57, label %58, label %.sink.split.i25

58:                                               ; preds = %54
  call void (ptr, i32, ptr, ...) @av_log(ptr noundef nonnull %0, i32 noundef 24, ptr noundef nonnull @.str.57) #12
  br label %.sink.split.i25

.sink.split.i25:                                  ; preds = %40, %42, %54, %58
  call void @llvm.lifetime.end.p0(i64 256, ptr nonnull %8) #12
  call void @av_freep(ptr noundef nonnull %7) #12
  br label %asf_read_value.exit28

asf_read_value.exit28:                            ; preds = %32, %.sink.split.i25
  call void @llvm.lifetime.end.p0(i64 8, ptr nonnull %7) #12
  br label %82

59:                                               ; preds = %11
  %60 = getelementptr inbounds nuw i8, ptr %0, i64 32
  %61 = load ptr, ptr %60, align 8, !tbaa !26
  %62 = call i32 @ff_get_guid(ptr noundef %61, ptr noundef nonnull %10) #12
  br label %82

63:                                               ; preds = %11
  %64 = getelementptr inbounds nuw i8, ptr %0, i64 32
  %65 = load ptr, ptr %64, align 8, !tbaa !26
  call void @llvm.lifetime.start.p0(i64 32, ptr nonnull %6) #12
  switch i16 %3, label %asf_set_metadata.exit [
    i16 2, label %66
    i16 3, label %69
    i16 4, label %72
    i16 5, label %74
  ]

66:                                               ; preds = %63
  %67 = tail call i32 @avio_rl16(ptr noundef %65) #12
  %68 = zext i32 %67 to i64
  br label %77

69:                                               ; preds = %63
  %70 = tail call i32 @avio_rl32(ptr noundef %65) #12
  %71 = zext i32 %70 to i64
  br label %77

72:                                               ; preds = %63
  %73 = tail call i64 @avio_rl64(ptr noundef %65) #12
  br label %77

74:                                               ; preds = %63
  %75 = tail call i32 @avio_rl16(ptr noundef %65) #12
  %76 = zext i32 %75 to i64
  br label %77

77:                                               ; preds = %74, %72, %69, %66
  %.09.ph.i = phi i64 [ %76, %74 ], [ %73, %72 ], [ %71, %69 ], [ %68, %66 ]
  %78 = call i32 (ptr, i64, ptr, ...) @snprintf(ptr noundef nonnull dereferenceable(1) %6, i64 noundef 32, ptr noundef nonnull @.str.59, i64 noundef %.09.ph.i) #12
  %79 = call i32 @av_dict_set(ptr noundef %4, ptr noundef %1, ptr noundef nonnull %6, i32 noundef 0) #12
  %80 = icmp slt i32 %79, 0
  br i1 %80, label %81, label %asf_set_metadata.exit.thread

81:                                               ; preds = %77
  call void (ptr, i32, ptr, ...) @av_log(ptr noundef nonnull %0, i32 noundef 24, ptr noundef nonnull @.str.57) #12
  br label %asf_set_metadata.exit.thread

asf_set_metadata.exit.thread:                     ; preds = %81, %77
  call void @llvm.lifetime.end.p0(i64 32, ptr nonnull %6) #12
  br label %82

asf_set_metadata.exit:                            ; preds = %63
  call void @llvm.lifetime.end.p0(i64 32, ptr nonnull %6) #12
  br label %82

82:                                               ; preds = %5, %28, %asf_read_value.exit28, %59, %asf_read_value.exit, %asf_set_metadata.exit.thread, %asf_set_metadata.exit
  %.0 = phi i32 [ -1094995529, %asf_set_metadata.exit ], [ 0, %asf_set_metadata.exit.thread ], [ 0, %asf_read_value.exit ], [ 0, %59 ], [ 0, %asf_read_value.exit28 ], [ 0, %28 ], [ 0, %5 ]
  call void @llvm.lifetime.end.p0(i64 16, ptr nonnull %10) #12
  ret i32 %.0
}